Certificate:
    Data:
        Version: 3 (0x2)
        Serial Number: 1 (0x1)
    Signature Algorithm: sha256WithRSAEncryption
        Issuer: C=JP, ST=Kanagawa, O=TripArts
        Validity
            Not Before: Dec 23 02:34:04 2017 GMT
            Not After : Nov 29 02:34:04 2117 GMT
        Subject: C=JP, ST=Kanagawa, O=TripArts
        Subject Public Key Info:
            Public Key Algorithm: rsaEncryption
                Public-Key: (4096 bit)
                Modulus:
                    00:e7:d6:44:ab:f2:cb:0b:69:87:80:1c:3e:24:f5:
                    03:f6:63:ec:28:45:98:44:ff:9e:d8:28:0b:05:ad:
                    cb:73:52:4e:16:51:c8:b2:09:e1:40:ef:4a:b1:b4:
                    19:69:88:f4:6e:8a:e7:74:44:8d:cd:4d:2e:4e:5d:
                    1c:73:29:fd:1e:39:97:d3:15:a1:7a:60:7c:a7:f9:
                    c2:71:43:d0:8d:a5:a2:64:7a:77:02:fb:5d:a8:c7:
                    91:07:3b:b8:71:a5:b3:d5:fb:39:0b:13:fd:61:28:
                    02:70:22:2c:76:81:f6:7e:31:61:da:d1:15:82:da:
                    28:fb:45:9b:58:75:db:b2:8f:8e:b1:72:e3:15:6f:
                    6b:53:6d:ce:e2:c5:18:2e:ce:f6:87:a1:3a:53:48:
                    bc:d0:e4:d9:f9:0d:18:cd:b2:8f:61:b3:f8:04:14:
                    69:13:08:89:f0:e2:40:60:57:2c:ed:50:aa:de:04:
                    3c:da:06:38:05:2c:50:63:15:61:83:f0:b9:2c:51:
                    c2:60:d2:d4:14:4b:d5:7e:a2:07:4d:6d:f6:3c:2b:
                    32:37:69:51:6c:b3:c5:39:f9:1a:f3:01:c5:23:9d:
                    db:d7:9f:96:ab:21:98:21:00:be:63:52:91:cb:18:
                    29:dd:36:af:21:c2:63:6e:48:89:3d:b6:c4:95:d5:
                    7a:2e:e4:ab:5d:af:2d:8e:ff:d1:f2:42:74:80:59:
                    ad:e6:05:ae:5f:89:d5:59:f1:15:10:7c:0e:d0:99:
                    dc:ea:b4:fe:80:4d:45:e7:e6:75:84:a7:94:fe:d9:
                    e7:ea:d1:e4:d6:26:8c:a1:84:e6:59:98:ae:14:6f:
                    f5:5e:b7:67:71:4b:58:3c:b8:9a:4f:f5:00:5d:f2:
                    ed:44:81:36:f1:4e:18:30:c6:1c:3c:4c:42:8f:da:
                    37:61:ba:80:21:4f:ae:6a:43:d1:1b:4a:75:e6:13:
                    cb:fe:e6:2c:c9:3a:34:86:17:dd:a2:dc:d5:ef:1b:
                    ba:c0:c9:95:d6:b5:e3:87:3b:b0:99:a9:e0:9c:c7:
                    b9:3b:90:01:54:91:36:cd:8e:61:2e:a7:24:a3:2e:
                    d4:68:b7:83:d9:e4:69:e3:2c:0f:0d:60:d2:64:a0:
                    6b:d1:4a:e9:89:12:ff:d4:be:29:f0:f9:8b:79:26:
                    c2:84:de:0a:06:d2:b6:e3:85:a9:65:79:75:0b:47:
                    b5:c7:ca:5f:fb:14:de:bd:63:24:dc:44:14:ef:e8:
                    9a:53:af:49:02:c9:5a:54:6a:ba:9a:13:9c:e7:f1:
                    63:57:1c:6e:ec:d9:75:ec:c8:63:db:fe:44:49:84:
                    d2:5d:41:d2:c9:ad:fa:df:2b:46:2c:e5:e7:b4:cf:
                    f6:fa:9d
                Exponent: 65537 (0x10001)
        X509v3 extensions:
            X509v3 Basic Constraints: 
                CA:FALSE
            Netscape Cert Type: 
                SSL Server
            Netscape Comment: 
                OpenSSL Generated Certificate
            X509v3 Subject Key Identifier: 
                0F:0B:9C:2E:9A:75:7C:90:D2:10:0B:C9:A7:7A:8F:0E:FD:B4:87:B3
            X509v3 Authority Key Identifier: 
                keyid:24:E6:CF:1A:D5:BB:D1:19:DC:E9:77:02:CF:4F:35:9F:CB:B8:44:F6

            X509v3 Subject Alternative Name: 
                DNS:localhost, DNS:*.localhost, DNS:mz4u.net, DNS:*.mz4u.net
    Signature Algorithm: sha256WithRSAEncryption
         6e:a6:6f:50:12:01:bf:5a:8b:d3:ed:3e:31:81:49:47:21:37:
         27:e5:e3:1d:99:c3:f8:bd:d7:ee:dc:da:19:51:f0:9e:c4:ca:
         c3:1a:25:ff:56:a3:fe:c8:67:4d:6c:d5:ca:94:40:14:ed:8f:
         36:c3:0b:61:8f:e1:b9:0d:ae:a0:8a:84:40:b5:54:89:f8:1a:
         e1:ee:b6:da:83:c4:47:8f:a0:fd:0f:16:f7:6a:ad:61:10:37:
         0e:f3:4f:8b:2b:e9:27:b6:d8:57:54:7c:77:e3:ea:ef:57:59:
         32:64:f1:8e:1c:ec:41:46:06:f0:57:bb:95:1a:03:79:46:d9:
         89:b0:92:49:17:f9:93:c0:cb:99:5e:53:d6:ad:e8:ea:f4:67:
         02:c9:b8:27:8a:8a:7b:4f:52:ab:0e:02:db:e0:fd:f7:bc:89:
         95:d2:e0:ad:41:d3:52:44:44:40:5a:cd:45:e5:3b:8f:a6:c1:
         a6:dc:14:e7:aa:a7:e6:59:7b:70:48:54:87:62:c3:95:79:e6:
         bf:ef:6c:90:55:8a:a6:91:c9:f9:bc:8c:fe:30:90:ca:ab:d4:
         5e:83:19:7a:b1:dd:c2:27:96:9f:a9:e3:6b:b1:38:c1:6a:00:
         f1:cf:98:94:1b:2b:4b:8f:60:33:05:9d:97:39:30:03:7e:75:
         3f:f3:f8:5b:dc:4a:18:16:16:79:c2:b0:b0:79:fb:00:2e:09:
         a9:69:ca:db:96:c8:ab:0a:4f:a8:cc:17:00:fc:3d:c0:4e:3b:
         b9:59:ae:e7:81:8e:15:bc:75:04:34:fc:1c:30:01:73:ea:69:
         8f:c2:6d:44:e3:df:b6:01:eb:3d:0c:c5:90:e7:0a:1a:10:39:
         27:b3:8b:90:1a:10:67:ef:76:4d:c1:3a:f2:56:48:0d:6a:6d:
         a1:95:7a:db:4b:18:bb:2b:c5:b5:b0:1d:83:a1:1e:04:94:cf:
         5d:9a:8a:63:cf:2e:ac:ea:e1:9f:d2:81:0b:28:32:03:b2:36:
         4b:2d:7e:64:10:a0:a7:78:02:47:8f:aa:b7:19:00:6e:de:cb:
         8f:89:d4:9a:03:58:dd:d8:0e:90:22:85:c5:52:d1:c3:1c:6b:
         a3:2c:2b:0f:d4:b7:9b:d1:30:c5:3f:83:6e:eb:bf:1e:8d:df:
         18:d6:c1:42:34:a2:49:4f:68:01:0c:8e:0a:13:e5:12:fb:01:
         31:2e:da:90:14:0a:63:b5:02:24:3e:86:7d:f9:01:4b:9d:79:
         7d:e9:e5:21:4e:20:d5:66:4a:f9:32:a8:3d:9b:43:92:e8:c1:
         b2:84:99:5b:21:50:c6:98:7d:bb:5e:d7:3e:1d:63:7f:a8:cb:
         70:69:ce:b9:c3:5e:18:b5
-----BEGIN CERTIFICATE-----
MIIFrDCCA5SgAwIBAgIBATANBgkqhkiG9w0BAQsFADAzMQswCQYDVQQGEwJKUDER
MA8GA1UECBMIS2FuYWdhd2ExETAPBgNVBAoTCFRyaXBBcnRzMCAXDTE3MTIyMzAy
MzQwNFoYDzIxMTcxMTI5MDIzNDA0WjAzMQswCQYDVQQGEwJKUDERMA8GA1UECBMI
S2FuYWdhd2ExETAPBgNVBAoTCFRyaXBBcnRzMIICIjANBgkqhkiG9w0BAQEFAAOC
Ag8AMIICCgKCAgEA59ZEq/LLC2mHgBw+JPUD9mPsKEWYRP+e2CgLBa3Lc1JOFlHI
sgnhQO9KsbQZaYj0borndESNzU0uTl0ccyn9HjmX0xWhemB8p/nCcUPQjaWiZHp3
AvtdqMeRBzu4caWz1fs5CxP9YSgCcCIsdoH2fjFh2tEVgtoo+0WbWHXbso+OsXLj
FW9rU23O4sUYLs72h6E6U0i80OTZ+Q0YzbKPYbP4BBRpEwiJ8OJAYFcs7VCq3gQ8
2gY4BSxQYxVhg/C5LFHCYNLUFEvVfqIHTW32PCsyN2lRbLPFOfka8wHFI53b15+W
qyGYIQC+Y1KRyxgp3TavIcJjbkiJPbbEldV6LuSrXa8tjv/R8kJ0gFmt5gWuX4nV
WfEVEHwO0Jnc6rT+gE1F5+Z1hKeU/tnn6tHk1iaMoYTmWZiuFG/1XrdncUtYPLia
T/UAXfLtRIE28U4YMMYcPExCj9o3YbqAIU+uakPRG0p15hPL/uYsyTo0hhfdotzV
7xu6wMmV1rXjhzuwmangnMe5O5ABVJE2zY5hLqckoy7UaLeD2eRp4ywPDWDSZKBr
0UrpiRL/1L4p8PmLeSbChN4KBtK244WpZXl1C0e1x8pf+xTevWMk3EQU7+iaU69J
AslaVGq6mhOc5/FjVxxu7Nl17Mhj2/5ESYTSXUHSya363ytGLOXntM/2+p0CAwEA
AaOByDCBxTAJBgNVHRMEAjAAMBEGCWCGSAGG+EIBAQQEAwIGQDAsBglghkgBhvhC
AQ0EHxYdT3BlblNTTCBHZW5lcmF0ZWQgQ2VydGlmaWNhdGUwHQYDVR0OBBYEFA8L
nC6adXyQ0hALyad6jw79tIezMB8GA1UdIwQYMBaAFCTmzxrVu9EZ3Ol3As9PNZ/L
uET2MDcGA1UdEQQwMC6CCWxvY2FsaG9zdIILKi5sb2NhbGhvc3SCCG16NHUubmV0
ggoqLm16NHUubmV0MA0GCSqGSIb3DQEBCwUAA4ICAQBupm9QEgG/WovT7T4xgUlH
ITcn5eMdmcP4vdfu3NoZUfCexMrDGiX/VqP+yGdNbNXKlEAU7Y82wwthj+G5Da6g
ioRAtVSJ+Brh7rbag8RHj6D9Dxb3aq1hEDcO80+LK+kntthXVHx34+rvV1kyZPGO
HOxBRgbwV7uVGgN5RtmJsJJJF/mTwMuZXlPWrejq9GcCybgniop7T1KrDgLb4P33
vImV0uCtQdNSRERAWs1F5TuPpsGm3BTnqqfmWXtwSFSHYsOVeea/72yQVYqmkcn5
vIz+MJDKq9Regxl6sd3CJ5afqeNrsTjBagDxz5iUGytLj2AzBZ2XOTADfnU/8/hb
3EoYFhZ5wrCwefsALgmpacrblsirCk+ozBcA/D3ATju5Wa7ngY4VvHUENPwcMAFz
6mmPwm1E49+2Aes9DMWQ5woaEDkns4uQGhBn73ZNwTryVkgNam2hlXrbSxi7K8W1
sB2DoR4ElM9dmopjzy6s6uGf0oELKDIDsjZLLX5kEKCneAJHj6q3GQBu3suPidSa
A1jd2A6QIoXFUtHDHGujLCsP1Leb0TDFP4Nu678ejd8Y1sFCNKJJT2gBDI4KE+US
+wExLtqQFApjtQIkPoZ9+QFLnXl96eUhTiDVZkr5Mqg9m0OS6MGyhJlbIVDGmH27
Xtc+HWN/qMtwac65w14YtQ==
-----END CERTIFICATE-----
